Certificate:
    Data:
        Version: 3 (0x2)
        Serial Number:
            3d:f2:93:22:1c:5c:9e:22:a7:8f:20:2c:9a:0e:59:1f:46:50:f3:8e
        Signature Algorithm: sha256WithRSAEncryption
        Issuer: DC=com, DC=ingeniouslycrazy, O=David Schneider, CN=David's Simple Certificate Authority
        Validity
            Not Before: Jun 23 10:16:28 2025 GMT
            Not After : Jun 23 10:16:28 2026 GMT
        Subject: DC=com, DC=ingeniouslycrazy, O=David Schneider, CN=David's Simple Certificate Authority
        Subject Public Key Info:
            Public Key Algorithm: rsaEncryption
                Public-Key: (2048 bit)
                Modulus:
                    00:d7:b7:71:cf:e8:b9:a9:f0:e9:2e:a0:44:45:ce:
                    3f:e8:78:7f:ad:66:75:b1:3c:2e:12:fb:e8:fc:30:
                    dd:4e:38:c9:f9:4a:2f:b2:8c:b1:d4:90:c1:97:16:
                    50:d1:35:65:5e:b3:e7:58:57:08:37:79:92:a3:0d:
                    9c:18:2b:bd:7a:d4:54:d1:91:8f:93:93:5d:0f:70:
                    c2:51:e7:fc:3b:40:c5:b3:4f:a1:de:4b:d4:b5:53:
                    ab:25:64:63:60:0b:e9:bf:14:ec:d0:17:1c:0c:1c:
                    4e:50:fe:30:49:df:93:ba:48:df:49:38:36:15:4d:
                    b1:08:20:bb:47:94:09:62:ca:1a:69:ef:3f:5c:86:
                    88:74:37:8e:40:c4:5c:34:c9:f9:57:94:95:df:03:
                    5b:fa:e4:25:2d:b1:73:11:f7:79:48:6d:62:a0:13:
                    43:10:c3:c2:25:d7:1c:97:72:7f:03:24:c1:ab:7b:
                    40:ca:b9:e8:ec:d5:1e:2b:51:d0:7d:1e:20:4d:aa:
                    a3:22:7c:34:79:07:cf:a9:18:b3:11:3f:40:39:43:
                    99:16:41:98:7e:70:67:b1:f3:ef:54:45:75:78:e3:
                    99:78:c3:3a:2a:44:ac:56:e4:3f:03:eb:3d:01:b6:
                    ff:fb:02:a1:0e:24:73:9b:fc:c2:be:c4:b6:bb:9d:
                    2b:43
                Exponent: 65537 (0x10001)
        X509v3 extensions:
            X509v3 Key Usage: critical
                Digital Signature, Key Encipherment
            X509v3 Basic Constraints: 
                CA:FALSE
            X509v3 Extended Key Usage: 
                TLS Web Server Authentication, TLS Web Client Authentication
            X509v3 Subject Key Identifier: 
                20:85:75:ED:A7:64:1F:F4:DB:C3:38:FD:5E:3A:A0:72:2B:12:2E:29
            X509v3 Authority Key Identifier: 
                FB:83:C4:5B:B8:93:17:17:72:B4:46:69:A2:A4:CE:48:40:FF:C1:3B
    Signature Algorithm: sha256WithRSAEncryption
    Signature Value:
        2d:c6:aa:4a:bc:3f:d4:b4:51:f3:72:93:d5:bf:f7:de:75:4d:
        89:d7:87:87:18:4b:d9:be:67:7a:2b:52:27:13:37:44:c8:f7:
        85:17:73:b3:3a:b6:65:43:39:7f:93:62:05:2a:3f:19:d3:f0:
        bd:2c:65:91:e9:c5:a1:e4:30:65:fd:73:59:58:57:d4:b9:4b:
        0f:83:09:c8:b5:cb:92:bd:9e:de:3a:72:16:41:2e:32:22:a4:
        9a:66:92:4e:42:6a:c2:8c:c8:57:72:f5:e0:4e:41:9d:d0:cd:
        94:33:27:fb:0d:4a:91:3c:18:32:58:e3:99:c0:64:91:1a:0f:
        10:29:a1:24:9f:b6:21:28:53:ab:37:34:9e:23:43:e9:a0:bb:
        5f:f6:72:a4:92:f0:5c:6b:6d:4d:d2:7e:03:19:1f:a5:82:4e:
        76:48:f7:ad:32:03:51:fb:6c:26:b7:07:eb:f1:8b:61:79:ec:
        16:72:4c:74:3a:fd:7b:b0:d1:64:e4:b3:c9:34:95:c4:67:a4:
        38:f4:1b:09:de:af:fc:3f:c9:e3:19:71:7a:39:3f:cb:ad:c1:
        a6:a1:0d:8d:42:62:0a:89:2b:c6:af:ac:18:1d:6e:3e:d8:9c:
        9a:b0:25:af:2e:93:d2:02:47:44:4d:4c:e5:94:47:62:fd:b4:
        c0:4b:d2:d4
-----BEGIN CERTIFICATE-----
MIIEDDCCAvSgAwIBAgIUPfKTIhxcniKnjyAsmg5ZH0ZQ844wDQYJKoZIhvcNAQEL
BQAwgYAxEzARBgoJkiaJk/IsZAEZFgNjb20xIDAeBgoJkiaJk/IsZAEZFhBpbmdl
bmlvdXNseWNyYXp5MRgwFgYDVQQKDA9EYXZpZCBTY2huZWlkZXIxLTArBgNVBAMM
JERhdmlkJ3MgU2ltcGxlIENlcnRpZmljYXRlIEF1dGhvcml0eTAeFw0yNTA2MjMx
MDE2MjhaFw0yNjA2MjMxMDE2MjhaMIGAMRMwEQYKCZImiZPyLGQBGRYDY29tMSAw
HgYKCZImiZPyLGQBGRYQaW5nZW5pb3VzbHljcmF6eTEYMBYGA1UECgwPRGF2aWQg
U2NobmVpZGVyMS0wKwYDVQQDDCREYXZpZCdzIFNpbXBsZSBDZXJ0aWZpY2F0ZSBB
dXRob3JpdHkwggEiMA0GCSqGSIb3DQEBAQUAA4IBDwAwggEKAoIBAQDXt3HP6Lmp
8OkuoERFzj/oeH+tZnWxPC4S++j8MN1OOMn5Si+yjLHUkMGXFlDRNWVes+dYVwg3
eZKjDZwYK7161FTRkY+Tk10PcMJR5/w7QMWzT6HeS9S1U6slZGNgC+m/FOzQFxwM
HE5Q/jBJ35O6SN9JODYVTbEIILtHlAliyhpp7z9choh0N45AxFw0yflXlJXfA1v6
5CUtsXMR93lIbWKgE0MQw8Il1xyXcn8DJMGre0DKuejs1R4rUdB9HiBNqqMifDR5
B8+pGLMRP0A5Q5kWQZh+cGex8+9URXV445l4wzoqRKxW5D8D6z0Btv/7AqEOJHOb
/MK+xLa7nStDAgMBAAGjfDB6MA4GA1UdDwEB/wQEAwIFoDAJBgNVHRMEAjAAMB0G
A1UdJQQWMBQGCCsGAQUFBwMBBggrBgEFBQcDAjAdBgNVHQ4EFgQUIIV17adkH/Tb
wzj9XjqgcisSLikwHwYDVR0jBBgwFoAU+4PEW7iTFxdytEZpoqTOSED/wTswDQYJ
KoZIhvcNAQELBQADggEBAC3Gqkq8P9S0UfNyk9W/9951TYnXh4cYS9m+Z3orUicT
N0TI94UXc7M6tmVDOX+TYgUqPxnT8L0sZZHpxaHkMGX9c1lYV9S5Sw+DCci1y5K9
nt46chZBLjIipJpmkk5CasKMyFdy9eBOQZ3QzZQzJ/sNSpE8GDJY45nAZJEaDxAp
oSSftiEoU6s3NJ4jQ+mgu1/2cqSS8FxrbU3SfgMZH6WCTnZI960yA1H7bCa3B+vx
i2F57BZyTHQ6/Xuw0WTks8k0lcRnpDj0Gwner/w/yeMZcXo5P8utwaahDY1CYgqJ
K8avrBgdbj7YnJqwJa8uk9ICR0RNTOWUR2L9tMBL0tQ=
-----END CERTIFICATE-----
